target datalayout = "e-m:e-p270:32:32-p271:32:32-p272:64:64-i64:64-i128:128-f80:128-n8:16:32:64-S128"
target triple = "x86_64-pc-linux-gnu"

%"class.std::error_code" = type { i32, ptr }

; Function Attrs: mustprogress nounwind uwtable
define linkonce_odr hidden void @_ZNSt10error_codeC2EiRKNSt3_V214error_categoryE(ptr noundef nonnull align 8 dereferenceable(16) %0, i32 noundef %1, ptr noundef nonnull align 8 dereferenceable(8) %2) unnamed_addr #0 comdat align 2 {
  %4 = alloca ptr, align 8
  %5 = alloca i32, align 4
  %6 = alloca ptr, align 8
  store ptr %0, ptr %4, align 8
  store i32 %1, ptr %5, align 4
  store ptr %2, ptr %6, align 8
  %7 = load ptr, ptr %4, align 8
  %8 = getelementptr inbounds nuw %"class.std::error_code", ptr %7, i32 0, i32 0
  %9 = load i32, ptr %5, align 4
  store i32 %9, ptr %8, align 8
  %10 = getelementptr inbounds nuw %"class.std::error_code", ptr %7, i32 0, i32 1
  %11 = load ptr, ptr %6, align 8
  store ptr %11, ptr %10, align 8
  ret void
}

; Function Attrs: mustprogress nounwind uwtable
define linkonce_odr hidden void @_ZNSt10error_codeC2Ev(ptr noundef nonnull align 8 dereferenceable(16) %0) unnamed_addr #0 comdat align 2 {
  %2 = alloca ptr, align 8
  store ptr %0, ptr %2, align 8
  %3 = load ptr, ptr %2, align 8
  %4 = getelementptr inbounds nuw %"class.std::error_code", ptr %3, i32 0, i32 0
  store i32 0, ptr %4, align 8
  %5 = getelementptr inbounds nuw %"class.std::error_code", ptr %3, i32 0, i32 1
  %6 = call noundef nonnull align 8 dereferenceable(8) ptr @_ZNSt3_V215system_categoryEv() #13
  store ptr %6, ptr %5, align 8
  ret void
}

; Function Attrs: mustprogress nounwind uwtable
define linkonce_odr hidden { i32, ptr } @_ZN4llvm16errnoAsErrorCodeEv() #0 comdat {
  %1 = alloca %"class.std::error_code", align 8
  %2 = call ptr @__errno_location() #13
  %3 = load i32, ptr %2, align 4
  %4 = call noundef nonnull align 8 dereferenceable(8) ptr @_ZNSt3_V216generic_categoryEv() #13
  call void @_ZNSt10error_codeC2EiRKNSt3_V214error_categoryE(ptr noundef nonnull align 8 dereferenceable(16) %1, i32 noundef %3, ptr noundef nonnull align 8 dereferenceable(8) %4) #9
  %5 = load { i32, ptr }, ptr %1, align 8
  ret { i32, ptr } %5
}

; Function Attrs: mustprogress nounwind uwtable
define internal { i32, ptr } @_ZN4llvm3sys2fsL18copy_file_internalEii(i32 noundef %0, i32 noundef %1) #0 {
  %3 = alloca %"class.std::error_code", align 8
  %4 = alloca i32, align 4
  %5 = alloca i32, align 4
  %6 = alloca i64, align 8
  %7 = alloca ptr, align 8
  %8 = alloca i32, align 4
  %9 = alloca i32, align 4
  store i32 %0, ptr %4, align 4
  store i32 %1, ptr %5, align 4
  store i64 4096, ptr %6, align 8
  %10 = call noalias noundef nonnull ptr @_Znam(i64 noundef 4096) #14
  store ptr %10, ptr %7, align 8
  store i32 0, ptr %8, align 4
  store i32 0, ptr %9, align 4
  br label %11

11:                                               ; preds = %41, %2
  %12 = load i32, ptr %4, align 4
  %13 = load ptr, ptr %7, align 8
  %14 = call i64 @read(i32 noundef %12, ptr noundef %13, i64 noundef 4096)
  %15 = trunc i64 %14 to i32
  store i32 %15, ptr %8, align 4
  %16 = load i32, ptr %8, align 4
  %17 = icmp sle i32 %16, 0
  br i1 %17, label %18, label %19

18:                                               ; preds = %11
  br label %42

19:                                               ; preds = %11
  br label %20

20:                                               ; preds = %33, %19
  %21 = load i32, ptr %8, align 4
  %22 = icmp ne i32 %21, 0
  br i1 %22, label %23, label %37

23:                                               ; preds = %20
  %24 = load i32, ptr %5, align 4
  %25 = load ptr, ptr %7, align 8
  %26 = load i32, ptr %8, align 4
  %27 = sext i32 %26 to i64
  %28 = call i64 @write(i32 noundef %24, ptr noundef %25, i64 noundef %27)
  %29 = trunc i64 %28 to i32
  store i32 %29, ptr %9, align 4
  %30 = load i32, ptr %9, align 4
  %31 = icmp slt i32 %30, 0
  br i1 %31, label %32, label %33

32:                                               ; preds = %23
  br label %37

33:                                               ; preds = %23
  %34 = load i32, ptr %9, align 4
  %35 = load i32, ptr %8, align 4
  %36 = sub nsw i32 %35, %34
  store i32 %36, ptr %8, align 4
  br label %20, !llvm.loop !19

37:                                               ; preds = %32, %20
  %38 = load i32, ptr %9, align 4
  %39 = icmp slt i32 %38, 0
  br i1 %39, label %40, label %41

40:                                               ; preds = %37
  br label %42

41:                                               ; preds = %37
  br label %11, !llvm.loop !20

42:                                               ; preds = %40, %18
  %43 = load ptr, ptr %7, align 8
  %44 = icmp eq ptr %43, null
  br i1 %44, label %46, label %45

45:                                               ; preds = %42
  call void @_ZdaPv(ptr noundef %43) #15
  br label %46

46:                                               ; preds = %45, %42
  %47 = load i32, ptr %8, align 4
  %48 = icmp slt i32 %47, 0
  br i1 %48, label %52, label %49

49:                                               ; preds = %46
  %50 = load i32, ptr %9, align 4
  %51 = icmp slt i32 %50, 0
  br i1 %51, label %52, label %58

52:                                               ; preds = %49, %46
  %53 = call { i32, ptr } @_ZN4llvm16errnoAsErrorCodeEv()
  %54 = getelementptr inbounds nuw { i32, ptr }, ptr %3, i32 0, i32 0
  %55 = extractvalue { i32, ptr } %53, 0
  store i32 %55, ptr %54, align 8
  %56 = getelementptr inbounds nuw { i32, ptr }, ptr %3, i32 0, i32 1
  %57 = extractvalue { i32, ptr } %53, 1
  store ptr %57, ptr %56, align 8
  br label %59

58:                                               ; preds = %49
  call void @_ZNSt10error_codeC2Ev(ptr noundef nonnull align 8 dereferenceable(16) %3) #9
  br label %59

59:                                               ; preds = %58, %52
  %60 = load { i32, ptr }, ptr %3, align 8
  ret { i32, ptr } %60
}