; Function Attrs: mustprogress nounwind uwtable
define internal fastcc { i32, ptr } @_ZN4llvm3sys2fsL18copy_file_internalEii(i32 noundef %0, i32 noundef %1) unnamed_addr #0 {
  %3 = tail call noalias noundef nonnull dereferenceable(4096) ptr @_Znam(i64 noundef 4096) #31
  %4 = tail call i64 @read(i32 noundef %0, ptr noundef nonnull %3, i64 noundef 4096) #30
  %5 = trunc i64 %4 to i32
  %6 = icmp sgt i32 %5, 0
  br i1 %6, label %.preheader, label %.thread

.loopexit:                                        ; preds = %14
  %7 = tail call i64 @read(i32 noundef %0, ptr noundef nonnull %3, i64 noundef 4096) #30
  %8 = trunc i64 %7 to i32
  %9 = icmp sgt i32 %8, 0
  br i1 %9, label %.preheader.backedge, label %.thread

.preheader:                                       ; preds = %2, %.preheader.backedge
  %.11526 = phi i32 [ %.11526.be, %.preheader.backedge ], [ %5, %2 ]
  %10 = sext i32 %.11526 to i64
  %11 = tail call i64 @write(i32 noundef %1, ptr noundef nonnull %3, i64 noundef %10) #30
  %12 = trunc i64 %11 to i32
  %13 = icmp slt i32 %12, 0
  br i1 %13, label %.thread.thread, label %14

.thread.thread:                                   ; preds = %.preheader
  tail call void @_ZdaPv(ptr noundef nonnull %3) #32
  br label %17

14:                                               ; preds = %.preheader
  %15 = sub nsw i32 %.11526, %12
  %.not = icmp eq i32 %15, 0
  br i1 %.not, label %.loopexit, label %.preheader.backedge

.preheader.backedge:                              ; preds = %14, %.loopexit
  %.11526.be = phi i32 [ %15, %14 ], [ %8, %.loopexit ]
  br label %.preheader, !llvm.loop !87

.thread:                                          ; preds = %.loopexit, %2
  %.014 = phi i32 [ %5, %2 ], [ %8, %.loopexit ]
  tail call void @_ZdaPv(ptr noundef nonnull %3) #32
  %16 = icmp slt i32 %.014, 0
  br i1 %16, label %17, label %21

17:                                               ; preds = %.thread.thread, %.thread
  %18 = tail call ptr @__errno_location() #33
  %19 = load i32, ptr %18, align 4
  %20 = tail call noundef nonnull align 8 dereferenceable(8) ptr @_ZNSt3_V216generic_categoryEv() #33
  br label %23

21:                                               ; preds = %.thread
  %22 = tail call noundef nonnull align 8 dereferenceable(8) ptr @_ZNSt3_V215system_categoryEv() #33
  br label %23

23:                                               ; preds = %21, %17
  %.sroa.3.0 = phi ptr [ %20, %17 ], [ %22, %21 ]
  %.sroa.0.0 = phi i32 [ %19, %17 ], [ 0, %21 ]
  %.fca.0.insert = insertvalue { i32, ptr } poison, i32 %.sroa.0.0, 0
  %.fca.1.insert = insertvalue { i32, ptr } %.fca.0.insert, ptr %.sroa.3.0, 1
  ret { i32, ptr } %.fca.1.insert
}